target datalayout = "e-m:e-p270:32:32-p271:32:32-p272:64:64-i64:64-i128:128-f80:128-n8:16:32:64-S128"
target triple = "x86_64-pc-linux-gnu"

@.str.1 = private unnamed_addr constant [10 x i8] c"genfile.c\00", align 1
@Log_directory = external global ptr, align 8
@DataDir = external global ptr, align 8
@.str.25 = private unnamed_addr constant [26 x i8] c"absolute path not allowed\00", align 1
@__func__.convert_and_check_filename = private unnamed_addr constant [27 x i8] c"convert_and_check_filename\00", align 1
@.str.26 = private unnamed_addr constant [44 x i8] c"path must be in or below the data directory\00", align 1

; Function Attrs: nounwind uwtable
define internal ptr @convert_and_check_filename(ptr noundef %0) #0 {
  %2 = alloca ptr, align 8
  %3 = alloca ptr, align 8
  %4 = alloca ptr, align 8
  %5 = alloca i32, align 4
  store ptr %0, ptr %3, align 8
  call void @llvm.lifetime.start.p0(i64 8, ptr %4) #9
  %6 = load ptr, ptr %3, align 8
  %7 = call ptr @text_to_cstring(ptr noundef %6)
  store ptr %7, ptr %4, align 8
  %8 = load ptr, ptr %4, align 8
  call void @canonicalize_path(ptr noundef %8)
  %9 = call i32 @GetUserId()
  %10 = call zeroext i1 @has_privs_of_role(i32 noundef %9, i32 noundef 4569)
  br i1 %10, label %11, label %13

11:                                               ; preds = %1
  %12 = load ptr, ptr %4, align 8
  store ptr %12, ptr %2, align 8
  store i32 1, ptr %5, align 4
  br label %64

13:                                               ; preds = %1
  %14 = load ptr, ptr %4, align 8
  %15 = getelementptr inbounds i8, ptr %14, i64 0
  %16 = load i8, ptr %15, align 1
  %17 = sext i8 %16 to i32
  %18 = icmp eq i32 %17, 47
  br i1 %18, label %19, label %46

19:                                               ; preds = %13
  %20 = load ptr, ptr @DataDir, align 8
  %21 = load ptr, ptr %4, align 8
  %22 = call zeroext i1 @path_is_prefix_of_path(ptr noundef %20, ptr noundef %21)
  br i1 %22, label %45, label %23

23:                                               ; preds = %19
  %24 = load ptr, ptr @Log_directory, align 8
  %25 = getelementptr inbounds i8, ptr %24, i64 0
  %26 = load i8, ptr %25, align 1
  %27 = sext i8 %26 to i32
  %28 = icmp eq i32 %27, 47
  br i1 %28, label %29, label %33

29:                                               ; preds = %23
  %30 = load ptr, ptr @Log_directory, align 8
  %31 = load ptr, ptr %4, align 8
  %32 = call zeroext i1 @path_is_prefix_of_path(ptr noundef %30, ptr noundef %31)
  br i1 %32, label %45, label %33

33:                                               ; preds = %29, %23
  br label %34

34:                                               ; preds = %33
  br i1 true, label %35, label %37

35:                                               ; preds = %34
  %36 = call zeroext i1 @errstart_cold(i32 noundef 21, ptr noundef null) #10
  br i1 %36, label %39, label %42

37:                                               ; preds = %34
  %38 = call zeroext i1 @errstart(i32 noundef 21, ptr noundef null)
  br i1 %38, label %39, label %42

39:                                               ; preds = %37, %35
  %40 = call i32 @errcode(i32 noundef 16797828)
  %41 = call i32 (ptr, ...) @errmsg(ptr noundef @.str.25)
  call void @errfinish(ptr noundef @.str.1, i32 noundef 84, ptr noundef @__func__.convert_and_check_filename)
  br label %42

42:                                               ; preds = %39, %37, %35
  unreachable

43:                                               ; No predecessors!
  br label %44

44:                                               ; preds = %43
  br label %45

45:                                               ; preds = %44, %29, %19
  br label %62

46:                                               ; preds = %13
  %47 = load ptr, ptr %4, align 8
  %48 = call zeroext i1 @path_is_relative_and_below_cwd(ptr noundef %47)
  br i1 %48, label %61, label %49

49:                                               ; preds = %46
  br label %50

50:                                               ; preds = %49
  br i1 true, label %51, label %53

51:                                               ; preds = %50
  %52 = call zeroext i1 @errstart_cold(i32 noundef 21, ptr noundef null) #10
  br i1 %52, label %55, label %58

53:                                               ; preds = %50
  %54 = call zeroext i1 @errstart(i32 noundef 21, ptr noundef null)
  br i1 %54, label %55, label %58

55:                                               ; preds = %53, %51
  %56 = call i32 @errcode(i32 noundef 16797828)
  %57 = call i32 (ptr, ...) @errmsg(ptr noundef @.str.26)
  call void @errfinish(ptr noundef @.str.1, i32 noundef 89, ptr noundef @__func__.convert_and_check_filename)
  br label %58

58:                                               ; preds = %55, %53, %51
  unreachable

59:                                               ; No predecessors!
  br label %60

60:                                               ; preds = %59
  br label %61

61:                                               ; preds = %60, %46
  br label %62

62:                                               ; preds = %61, %45
  %63 = load ptr, ptr %4, align 8
  store ptr %63, ptr %2, align 8
  store i32 1, ptr %5, align 4
  br label %64

64:                                               ; preds = %62, %11
  call void @llvm.lifetime.end.p0(i64 8, ptr %4) #9
  %65 = load ptr, ptr %2, align 8
  ret ptr %65
}