; Function Attrs: nounwind uwtable
define internal fastcc noundef ptr @convert_and_check_filename(ptr noundef %0) unnamed_addr #0 {
  %2 = tail call ptr @text_to_cstring(ptr noundef %0) #9
  tail call void @canonicalize_path(ptr noundef %2) #9
  %3 = tail call i32 @GetUserId() #9
  %4 = tail call zeroext i1 @has_privs_of_role(i32 noundef %3, i32 noundef 4569) #9
  br i1 %4, label %27, label %5

5:                                                ; preds = %1
  %6 = load i8, ptr %2, align 1
  %7 = icmp eq i8 %6, 47
  br i1 %7, label %8, label %21

8:                                                ; preds = %5
  %9 = load ptr, ptr @DataDir, align 8
  %10 = tail call zeroext i1 @path_is_prefix_of_path(ptr noundef %9, ptr noundef nonnull %2) #9
  br i1 %10, label %27, label %11

11:                                               ; preds = %8
  %12 = load ptr, ptr @Log_directory, align 8
  %13 = load i8, ptr %12, align 1
  %14 = icmp eq i8 %13, 47
  br i1 %14, label %15, label %17

15:                                               ; preds = %11
  %16 = tail call zeroext i1 @path_is_prefix_of_path(ptr noundef nonnull %12, ptr noundef nonnull %2) #9
  br i1 %16, label %27, label %17

17:                                               ; preds = %15, %11
  %18 = tail call zeroext i1 @errstart_cold(i32 noundef 21, ptr noundef null) #10
  tail call void @llvm.assume(i1 %18)
  %19 = tail call i32 @errcode(i32 noundef 16797828) #9
  %20 = tail call i32 (ptr, ...) @errmsg(ptr noundef nonnull @.str.25) #9
  tail call void @errfinish(ptr noundef nonnull @.str.1, i32 noundef 84, ptr noundef nonnull @__func__.convert_and_check_filename) #9
  unreachable

21:                                               ; preds = %5
  %22 = tail call zeroext i1 @path_is_relative_and_below_cwd(ptr noundef nonnull %2) #9
  br i1 %22, label %27, label %23

23:                                               ; preds = %21
  %24 = tail call zeroext i1 @errstart_cold(i32 noundef 21, ptr noundef null) #10
  tail call void @llvm.assume(i1 %24)
  %25 = tail call i32 @errcode(i32 noundef 16797828) #9
  %26 = tail call i32 (ptr, ...) @errmsg(ptr noundef nonnull @.str.26) #9
  tail call void @errfinish(ptr noundef nonnull @.str.1, i32 noundef 89, ptr noundef nonnull @__func__.convert_and_check_filename) #9
  unreachable

27:                                               ; preds = %15, %8, %21, %1
  ret ptr %2
}